(dp0
S'zanahoria'
p1
S'carrot'
p2
sS'espinaca'
p3
S'spinach'
p4
sS'acete'
p5
S'cooking oil'
p6
sS'pollo'
p7
S'chicken flesh'
p8
sS'aqua'
p9
S'water'
p10
sS'cacahuate'
p11
S'peanuts'
p12
sS'requerdo'
p13
S'memories'
p14
sS'carne'
p15
S'meat'
p16
sS'cebolla'
p17
S'onion'
p18
sS'sopa'
p19
S'soup'
p20
sS'sal'
p21
S'salt'
p22
sS'cerveza'
p23
S'beer'
p24
sS'ajo'
p25
S'garlic'
p26
sS'mani'
p27
g12
sS'arroz'
p28
S'rice'
p29
sS'pan'
p30
S'bread'
p31
s.